target datalayout = "e-m:e-p270:32:32-p271:32:32-p272:64:64-i64:64-i128:128-f80:128-n8:16:32:64-S128"
target triple = "x86_64-pc-linux-gnu"

%struct.ForEachState = type { ptr, i32 }
%struct.List = type { i32, i32, i32, ptr, [0 x %union.ListCell] }
%union.ListCell = type { ptr }
%struct.String = type { i32, ptr }
%struct.ParseNamespaceColumn = type { i32, i16, i32, i32, i32, i32, i32, i16, i8 }
%struct.Expr = type { i32 }
%struct.Var = type { %struct.Expr, i32, i16, i32, i32, i32, ptr, i32, i32, i32, i16, i32 }

; Function Attrs: nounwind uwtable
define internal ptr @buildVarFromNSColumn(ptr noundef %0, ptr noundef %1) #0 {
  %3 = alloca ptr, align 8
  %4 = alloca ptr, align 8
  %5 = alloca ptr, align 8
  store ptr %0, ptr %3, align 8
  store ptr %1, ptr %4, align 8
  call void @llvm.lifetime.start.p0(i64 8, ptr %5) #8
  %6 = load ptr, ptr %4, align 8
  %7 = getelementptr inbounds nuw %struct.ParseNamespaceColumn, ptr %6, i32 0, i32 0
  %8 = load i32, ptr %7, align 4
  %9 = load ptr, ptr %4, align 8
  %10 = getelementptr inbounds nuw %struct.ParseNamespaceColumn, ptr %9, i32 0, i32 1
  %11 = load i16, ptr %10, align 4
  %12 = load ptr, ptr %4, align 8
  %13 = getelementptr inbounds nuw %struct.ParseNamespaceColumn, ptr %12, i32 0, i32 2
  %14 = load i32, ptr %13, align 4
  %15 = load ptr, ptr %4, align 8
  %16 = getelementptr inbounds nuw %struct.ParseNamespaceColumn, ptr %15, i32 0, i32 3
  %17 = load i32, ptr %16, align 4
  %18 = load ptr, ptr %4, align 8
  %19 = getelementptr inbounds nuw %struct.ParseNamespaceColumn, ptr %18, i32 0, i32 4
  %20 = load i32, ptr %19, align 4
  %21 = call ptr @makeVar(i32 noundef %8, i16 noundef signext %11, i32 noundef %14, i32 noundef %17, i32 noundef %20, i32 noundef 0)
  store ptr %21, ptr %5, align 8
  %22 = load ptr, ptr %4, align 8
  %23 = getelementptr inbounds nuw %struct.ParseNamespaceColumn, ptr %22, i32 0, i32 5
  %24 = load i32, ptr %23, align 4
  %25 = load ptr, ptr %5, align 8
  %26 = getelementptr inbounds nuw %struct.Var, ptr %25, i32 0, i32 8
  store i32 %24, ptr %26, align 4
  %27 = load ptr, ptr %4, align 8
  %28 = getelementptr inbounds nuw %struct.ParseNamespaceColumn, ptr %27, i32 0, i32 6
  %29 = load i32, ptr %28, align 4
  %30 = load ptr, ptr %5, align 8
  %31 = getelementptr inbounds nuw %struct.Var, ptr %30, i32 0, i32 9
  store i32 %29, ptr %31, align 8
  %32 = load ptr, ptr %4, align 8
  %33 = getelementptr inbounds nuw %struct.ParseNamespaceColumn, ptr %32, i32 0, i32 7
  %34 = load i16, ptr %33, align 4
  %35 = load ptr, ptr %5, align 8
  %36 = getelementptr inbounds nuw %struct.Var, ptr %35, i32 0, i32 10
  store i16 %34, ptr %36, align 4
  %37 = load ptr, ptr %3, align 8
  %38 = load ptr, ptr %5, align 8
  call void @markNullableIfNeeded(ptr noundef %37, ptr noundef %38)
  %39 = load ptr, ptr %5, align 8
  call void @llvm.lifetime.end.p0(i64 8, ptr %5) #8
  ret ptr %39
}

; Function Attrs: nounwind uwtable
define internal i32 @extractRemainingColumns(ptr noundef %0, ptr noundef %1, ptr noundef %2, ptr noundef %3, ptr noundef %4, ptr noundef %5, ptr noundef %6) #0 {
  %8 = alloca ptr, align 8
  %9 = alloca ptr, align 8
  %10 = alloca ptr, align 8
  %11 = alloca ptr, align 8
  %12 = alloca ptr, align 8
  %13 = alloca ptr, align 8
  %14 = alloca ptr, align 8
  %15 = alloca i32, align 4
  %16 = alloca ptr, align 8
  %17 = alloca i32, align 4
  %18 = alloca ptr, align 8
  %19 = alloca %struct.ForEachState, align 8
  %20 = alloca %struct.ForEachState, align 8
  %21 = alloca ptr, align 8
  store ptr %0, ptr %8, align 8
  store ptr %1, ptr %9, align 8
  store ptr %2, ptr %10, align 8
  store ptr %3, ptr %11, align 8
  store ptr %4, ptr %12, align 8
  store ptr %5, ptr %13, align 8
  store ptr %6, ptr %14, align 8
  call void @llvm.lifetime.start.p0(i64 4, ptr %15) #8
  store i32 0, ptr %15, align 4
  call void @llvm.lifetime.start.p0(i64 8, ptr %16) #8
  call void @llvm.lifetime.start.p0(i64 4, ptr %17) #8
  call void @llvm.lifetime.start.p0(i64 8, ptr %18) #8
  store ptr null, ptr %16, align 8
  call void @llvm.lifetime.start.p0(i64 16, ptr %19) #8
  %22 = getelementptr inbounds nuw %struct.ForEachState, ptr %19, i32 0, i32 0
  %23 = load ptr, ptr %11, align 8
  %24 = load ptr, ptr %23, align 8
  store ptr %24, ptr %22, align 8
  %25 = getelementptr inbounds nuw %struct.ForEachState, ptr %19, i32 0, i32 1
  store i32 0, ptr %25, align 8
  %26 = getelementptr i8, ptr %19, i64 12
  call void @llvm.memset.p0.i64(ptr align 4 %26, i8 0, i64 4, i1 false)
  br label %27

27:                                               ; preds = %58, %7
  %28 = getelementptr inbounds nuw %struct.ForEachState, ptr %19, i32 0, i32 0
  %29 = load ptr, ptr %28, align 8
  %30 = icmp ne ptr %29, null
  br i1 %30, label %31, label %48

31:                                               ; preds = %27
  %32 = getelementptr inbounds nuw %struct.ForEachState, ptr %19, i32 0, i32 1
  %33 = load i32, ptr %32, align 8
  %34 = getelementptr inbounds nuw %struct.ForEachState, ptr %19, i32 0, i32 0
  %35 = load ptr, ptr %34, align 8
  %36 = getelementptr inbounds nuw %struct.List, ptr %35, i32 0, i32 1
  %37 = load i32, ptr %36, align 4
  %38 = icmp slt i32 %33, %37
  br i1 %38, label %39, label %48

39:                                               ; preds = %31
  %40 = getelementptr inbounds nuw %struct.ForEachState, ptr %19, i32 0, i32 0
  %41 = load ptr, ptr %40, align 8
  %42 = getelementptr inbounds nuw %struct.List, ptr %41, i32 0, i32 3
  %43 = load ptr, ptr %42, align 8
  %44 = getelementptr inbounds nuw %struct.ForEachState, ptr %19, i32 0, i32 1
  %45 = load i32, ptr %44, align 8
  %46 = sext i32 %45 to i64
  %47 = getelementptr inbounds %union.ListCell, ptr %43, i64 %46
  store ptr %47, ptr %18, align 8
  br label %49

48:                                               ; preds = %31, %27
  store ptr null, ptr %18, align 8
  br label %49

49:                                               ; preds = %48, %39
  %50 = phi i32 [ 1, %39 ], [ 0, %48 ]
  %51 = icmp ne i32 %50, 0
  br i1 %51, label %53, label %52

52:                                               ; preds = %49
  call void @llvm.lifetime.end.p0(i64 16, ptr %19) #8
  br label %62

53:                                               ; preds = %49
  %54 = load ptr, ptr %16, align 8
  %55 = load ptr, ptr %18, align 8
  %56 = load i32, ptr %55, align 8
  %57 = call ptr @bms_add_member(ptr noundef %54, i32 noundef %56)
  store ptr %57, ptr %16, align 8
  br label %58

58:                                               ; preds = %53
  %59 = getelementptr inbounds nuw %struct.ForEachState, ptr %19, i32 0, i32 1
  %60 = load i32, ptr %59, align 8
  %61 = add i32 %60, 1
  store i32 %61, ptr %59, align 8
  br label %27, !llvm.loop !48

62:                                               ; preds = %52
  store i32 0, ptr %17, align 4
  call void @llvm.lifetime.start.p0(i64 16, ptr %20) #8
  %63 = getelementptr inbounds nuw %struct.ForEachState, ptr %20, i32 0, i32 0
  %64 = load ptr, ptr %10, align 8
  store ptr %64, ptr %63, align 8
  %65 = getelementptr inbounds nuw %struct.ForEachState, ptr %20, i32 0, i32 1
  store i32 0, ptr %65, align 8
  %66 = getelementptr i8, ptr %20, i64 12
  call void @llvm.memset.p0.i64(ptr align 4 %66, i8 0, i64 4, i1 false)
  br label %67

67:                                               ; preds = %144, %62
  %68 = getelementptr inbounds nuw %struct.ForEachState, ptr %20, i32 0, i32 0
  %69 = load ptr, ptr %68, align 8
  %70 = icmp ne ptr %69, null
  br i1 %70, label %71, label %88

71:                                               ; preds = %67
  %72 = getelementptr inbounds nuw %struct.ForEachState, ptr %20, i32 0, i32 1
  %73 = load i32, ptr %72, align 8
  %74 = getelementptr inbounds nuw %struct.ForEachState, ptr %20, i32 0, i32 0
  %75 = load ptr, ptr %74, align 8
  %76 = getelementptr inbounds nuw %struct.List, ptr %75, i32 0, i32 1
  %77 = load i32, ptr %76, align 4
  %78 = icmp slt i32 %73, %77
  br i1 %78, label %79, label %88

79:                                               ; preds = %71
  %80 = getelementptr inbounds nuw %struct.ForEachState, ptr %20, i32 0, i32 0
  %81 = load ptr, ptr %80, align 8
  %82 = getelementptr inbounds nuw %struct.List, ptr %81, i32 0, i32 3
  %83 = load ptr, ptr %82, align 8
  %84 = getelementptr inbounds nuw %struct.ForEachState, ptr %20, i32 0, i32 1
  %85 = load i32, ptr %84, align 8
  %86 = sext i32 %85 to i64
  %87 = getelementptr inbounds %union.ListCell, ptr %83, i64 %86
  store ptr %87, ptr %18, align 8
  br label %89

88:                                               ; preds = %71, %67
  store ptr null, ptr %18, align 8
  br label %89

89:                                               ; preds = %88, %79
  %90 = phi i32 [ 1, %79 ], [ 0, %88 ]
  %91 = icmp ne i32 %90, 0
  br i1 %91, label %93, label %92

92:                                               ; preds = %89
  call void @llvm.lifetime.end.p0(i64 16, ptr %20) #8
  br label %148

93:                                               ; preds = %89
  call void @llvm.lifetime.start.p0(i64 8, ptr %21) #8
  %94 = load ptr, ptr %18, align 8
  %95 = load ptr, ptr %94, align 8
  %96 = getelementptr inbounds nuw %struct.String, ptr %95, i32 0, i32 1
  %97 = load ptr, ptr %96, align 8
  store ptr %97, ptr %21, align 8
  %98 = load i32, ptr %17, align 4
  %99 = add i32 %98, 1
  store i32 %99, ptr %17, align 4
  %100 = load ptr, ptr %21, align 8
  %101 = getelementptr inbounds i8, ptr %100, i64 0
  %102 = load i8, ptr %101, align 1
  %103 = sext i8 %102 to i32
  %104 = icmp ne i32 %103, 0
  br i1 %104, label %105, label %143

105:                                              ; preds = %93
  %106 = load i32, ptr %17, align 4
  %107 = load ptr, ptr %16, align 8
  %108 = call zeroext i1 @bms_is_member(i32 noundef %106, ptr noundef %107)
  br i1 %108, label %143, label %109

109:                                              ; preds = %105
  %110 = load ptr, ptr %11, align 8
  %111 = load ptr, ptr %110, align 8
  %112 = load i32, ptr %17, align 4
  %113 = call ptr @lappend_int(ptr noundef %111, i32 noundef %112)
  %114 = load ptr, ptr %11, align 8
  store ptr %113, ptr %114, align 8
  %115 = load ptr, ptr %12, align 8
  %116 = load ptr, ptr %115, align 8
  %117 = load ptr, ptr %18, align 8
  %118 = load ptr, ptr %117, align 8
  %119 = call ptr @lappend(ptr noundef %116, ptr noundef %118)
  %120 = load ptr, ptr %12, align 8
  store ptr %119, ptr %120, align 8
  %121 = load ptr, ptr %13, align 8
  %122 = load ptr, ptr %121, align 8
  %123 = load ptr, ptr %8, align 8
  %124 = load ptr, ptr %9, align 8
  %125 = load i32, ptr %17, align 4
  %126 = sext i32 %125 to i64
  %127 = getelementptr inbounds %struct.ParseNamespaceColumn, ptr %124, i64 %126
  %128 = getelementptr inbounds %struct.ParseNamespaceColumn, ptr %127, i64 -1
  %129 = call ptr @buildVarFromNSColumn(ptr noundef %123, ptr noundef %128)
  %130 = call ptr @lappend(ptr noundef %122, ptr noundef %129)
  %131 = load ptr, ptr %13, align 8
  store ptr %130, ptr %131, align 8
  %132 = load ptr, ptr %14, align 8
  %133 = load i32, ptr %15, align 4
  %134 = sext i32 %133 to i64
  %135 = getelementptr inbounds %struct.ParseNamespaceColumn, ptr %132, i64 %134
  %136 = load ptr, ptr %9, align 8
  %137 = load i32, ptr %17, align 4
  %138 = sub i32 %137, 1
  %139 = sext i32 %138 to i64
  %140 = getelementptr inbounds %struct.ParseNamespaceColumn, ptr %136, i64 %139
  call void @llvm.memcpy.p0.p0.i64(ptr align 4 %135, ptr align 4 %140, i64 32, i1 false)
  %141 = load i32, ptr %15, align 4
  %142 = add i32 %141, 1
  store i32 %142, ptr %15, align 4
  br label %143

143:                                              ; preds = %109, %105, %93
  call void @llvm.lifetime.end.p0(i64 8, ptr %21) #8
  br label %144

144:                                              ; preds = %143
  %145 = getelementptr inbounds nuw %struct.ForEachState, ptr %20, i32 0, i32 1
  %146 = load i32, ptr %145, align 8
  %147 = add i32 %146, 1
  store i32 %147, ptr %145, align 8
  br label %67, !llvm.loop !49

148:                                              ; preds = %92
  %149 = load i32, ptr %15, align 4
  call void @llvm.lifetime.end.p0(i64 8, ptr %18) #8
  call void @llvm.lifetime.end.p0(i64 4, ptr %17) #8
  call void @llvm.lifetime.end.p0(i64 8, ptr %16) #8
  call void @llvm.lifetime.end.p0(i64 4, ptr %15) #8
  ret i32 %149
}