; Function Attrs: nounwind uwtable
define internal fastcc i32 @extractRemainingColumns(ptr noundef %0, ptr noundef readonly captures(none) %1, ptr noundef readonly captures(address_is_null) %2, ptr noundef nonnull captures(none) %3, ptr noundef nonnull captures(none) %4, ptr noundef nonnull captures(none) %5, ptr noundef writeonly captures(none) %6) unnamed_addr #0 {
  %8 = load ptr, ptr %3, align 8
  %9 = getelementptr inbounds nuw i8, ptr %8, i64 4
  %.not = icmp eq ptr %8, null
  br i1 %.not, label %._crit_edge54, label %.lr.ph

.lr.ph:                                           ; preds = %7
  %10 = getelementptr inbounds nuw i8, ptr %8, i64 16
  %11 = load i32, ptr %9, align 4
  %12 = icmp sgt i32 %11, 0
  br i1 %12, label %.lr.ph59, label %._crit_edge54

._crit_edge54:                                    ; preds = %.lr.ph59, %.lr.ph, %7
  %.036.lcssa = phi ptr [ null, %7 ], [ null, %.lr.ph ], [ %20, %.lr.ph59 ]
  %13 = getelementptr inbounds nuw i8, ptr %2, i64 4
  %.not43 = icmp eq ptr %2, null
  br i1 %.not43, label %._crit_edge65, label %.lr.ph64

.lr.ph64:                                         ; preds = %._crit_edge54
  %14 = getelementptr inbounds nuw i8, ptr %2, i64 16
  %15 = load i32, ptr %13, align 4
  %16 = icmp sgt i32 %15, 0
  br i1 %16, label %.lr.ph77, label %._crit_edge65

.lr.ph59:                                         ; preds = %.lr.ph, %.lr.ph59
  %indvars.iv = phi i64 [ %indvars.iv.next, %.lr.ph59 ], [ 0, %.lr.ph ]
  %.0365357 = phi ptr [ %20, %.lr.ph59 ], [ null, %.lr.ph ]
  %17 = load ptr, ptr %10, align 8
  %18 = getelementptr inbounds nuw %union.ListCell, ptr %17, i64 %indvars.iv
  %19 = load i32, ptr %18, align 8
  %20 = tail call ptr @bms_add_member(ptr noundef %.0365357, i32 noundef %19) #9
  %indvars.iv.next = add nuw nsw i64 %indvars.iv, 1
  %21 = load i32, ptr %9, align 4
  %22 = sext i32 %21 to i64
  %23 = icmp slt i64 %indvars.iv.next, %22
  br i1 %23, label %.lr.ph59, label %._crit_edge54

._crit_edge65:                                    ; preds = %66, %.lr.ph64, %._crit_edge54
  %.0.lcssa = phi i32 [ 0, %._crit_edge54 ], [ 0, %.lr.ph64 ], [ %.1, %66 ]
  ret i32 %.0.lcssa

.lr.ph77:                                         ; preds = %.lr.ph64, %66
  %.06276 = phi i32 [ %.1, %66 ], [ 0, %.lr.ph64 ]
  %indvars.iv7075 = phi i64 [ %indvars.iv.next71, %66 ], [ 0, %.lr.ph64 ]
  %24 = load ptr, ptr %14, align 8
  %25 = getelementptr inbounds nuw %union.ListCell, ptr %24, i64 %indvars.iv7075
  %26 = load ptr, ptr %25, align 8
  %27 = getelementptr inbounds nuw i8, ptr %26, i64 8
  %28 = load ptr, ptr %27, align 8
  %indvars.iv.next71 = add nuw nsw i64 %indvars.iv7075, 1
  %29 = load i8, ptr %28, align 1
  %.not45 = icmp eq i8 %29, 0
  br i1 %.not45, label %66, label %30

30:                                               ; preds = %.lr.ph77
  %31 = trunc nsw i64 %indvars.iv.next71 to i32
  %32 = tail call zeroext i1 @bms_is_member(i32 noundef %31, ptr noundef %.036.lcssa) #9
  br i1 %32, label %66, label %33

33:                                               ; preds = %30
  %34 = load ptr, ptr %3, align 8
  %35 = tail call ptr @lappend_int(ptr noundef %34, i32 noundef %31) #9
  store ptr %35, ptr %3, align 8
  %36 = load ptr, ptr %4, align 8
  %37 = load ptr, ptr %25, align 8
  %38 = tail call ptr @lappend(ptr noundef %36, ptr noundef %37) #9
  store ptr %38, ptr %4, align 8
  %39 = load ptr, ptr %5, align 8
  %40 = getelementptr inbounds nuw %struct.ParseNamespaceColumn, ptr %1, i64 %indvars.iv.next71
  %41 = getelementptr inbounds i8, ptr %40, i64 -32
  %42 = load i32, ptr %41, align 4
  %43 = getelementptr inbounds i8, ptr %40, i64 -28
  %44 = load i16, ptr %43, align 4
  %45 = getelementptr inbounds i8, ptr %40, i64 -24
  %46 = load i32, ptr %45, align 4
  %47 = getelementptr inbounds i8, ptr %40, i64 -20
  %48 = load i32, ptr %47, align 4
  %49 = getelementptr inbounds i8, ptr %40, i64 -16
  %50 = load i32, ptr %49, align 4
  %51 = tail call ptr @makeVar(i32 noundef %42, i16 noundef signext %44, i32 noundef %46, i32 noundef %48, i32 noundef %50, i32 noundef 0) #9
  %52 = getelementptr inbounds i8, ptr %40, i64 -12
  %53 = load i32, ptr %52, align 4
  %54 = getelementptr inbounds nuw i8, ptr %51, i64 36
  store i32 %53, ptr %54, align 4
  %55 = getelementptr inbounds i8, ptr %40, i64 -8
  %56 = load i32, ptr %55, align 4
  %57 = getelementptr inbounds nuw i8, ptr %51, i64 40
  store i32 %56, ptr %57, align 8
  %58 = getelementptr inbounds i8, ptr %40, i64 -4
  %59 = load i16, ptr %58, align 4
  %60 = getelementptr inbounds nuw i8, ptr %51, i64 44
  store i16 %59, ptr %60, align 4
  tail call void @markNullableIfNeeded(ptr noundef %0, ptr noundef %51) #9
  %61 = tail call ptr @lappend(ptr noundef %39, ptr noundef %51) #9
  store ptr %61, ptr %5, align 8
  %62 = sext i32 %.06276 to i64
  %63 = getelementptr inbounds %struct.ParseNamespaceColumn, ptr %6, i64 %62
  %64 = getelementptr inbounds nuw %struct.ParseNamespaceColumn, ptr %1, i64 %indvars.iv7075
  tail call void @llvm.memcpy.p0.p0.i64(ptr noundef nonnull align 4 dereferenceable(32) %63, ptr noundef nonnull align 4 dereferenceable(32) %64, i64 32, i1 false)
  %65 = add i32 %.06276, 1
  br label %66

66:                                               ; preds = %33, %30, %.lr.ph77
  %.1 = phi i32 [ %.06276, %30 ], [ %65, %33 ], [ %.06276, %.lr.ph77 ]
  %67 = load i32, ptr %13, align 4
  %68 = sext i32 %67 to i64
  %69 = icmp slt i64 %indvars.iv.next71, %68
  br i1 %69, label %.lr.ph77, label %._crit_edge65
}